; Function Attrs: mustprogress nounwind uwtable
define dso_local void @_ZN16NavMeshPruneToolD2Ev(ptr noundef nonnull align 8 dereferenceable(37) %0) unnamed_addr #1 align 2 personality ptr @__gxx_personality_v0 {
  store ptr getelementptr inbounds ({ [14 x ptr] }, ptr @_ZTV16NavMeshPruneTool, i64 0, i32 0, i64 2), ptr %0, align 8
  %2 = getelementptr inbounds i8, ptr %0, i64 16
  %3 = load ptr, ptr %2, align 8
  %4 = icmp eq ptr %3, null
  br i1 %4, label %21, label %5

5:                                                ; preds = %1
  %6 = getelementptr inbounds i8, ptr %3, i64 16
  %7 = load i32, ptr %6, align 8
  %8 = icmp sgt i32 %7, 0
  br i1 %8, label %.lr.ph.i, label %._crit_edge.i

.lr.ph.i:                                         ; preds = %5
  %9 = getelementptr inbounds i8, ptr %3, i64 8
  br label %10

10:                                               ; preds = %_ZN12NavmeshFlags9TileFlags5purgeEv.exit.i, %.lr.ph.i
  %indvars.iv.i = phi i64 [ 0, %.lr.ph.i ], [ %indvars.iv.next.i, %_ZN12NavmeshFlags9TileFlags5purgeEv.exit.i ]
  %11 = load ptr, ptr %9, align 8
  %12 = getelementptr inbounds %"struct.NavmeshFlags::TileFlags", ptr %11, i64 %indvars.iv.i
  %13 = load ptr, ptr %12, align 8
  invoke void @_Z6dtFreePv(ptr noundef %13)
          to label %_ZN12NavmeshFlags9TileFlags5purgeEv.exit.i unwind label %.loopexit.i

_ZN12NavmeshFlags9TileFlags5purgeEv.exit.i:       ; preds = %10
  %indvars.iv.next.i = add nuw nsw i64 %indvars.iv.i, 1
  %14 = load i32, ptr %6, align 8
  %15 = sext i32 %14 to i64
  %16 = icmp slt i64 %indvars.iv.next.i, %15
  br i1 %16, label %10, label %._crit_edge.i, !llvm.loop !5

._crit_edge.i:                                    ; preds = %_ZN12NavmeshFlags9TileFlags5purgeEv.exit.i, %5
  %17 = getelementptr inbounds i8, ptr %3, i64 8
  %18 = load ptr, ptr %17, align 8
  invoke void @_Z6dtFreePv(ptr noundef %18)
          to label %_ZN12NavmeshFlagsD2Ev.exit unwind label %.loopexit.split-lp.i

.loopexit.i:                                      ; preds = %10
  %lpad.loopexit.i = landingpad { ptr, i32 }
          catch ptr null
  br label %19

.loopexit.split-lp.i:                             ; preds = %._crit_edge.i
  %lpad.loopexit.split-lp.i = landingpad { ptr, i32 }
          catch ptr null
  br label %19

19:                                               ; preds = %.loopexit.split-lp.i, %.loopexit.i
  %lpad.phi.i = phi { ptr, i32 } [ %lpad.loopexit.i, %.loopexit.i ], [ %lpad.loopexit.split-lp.i, %.loopexit.split-lp.i ]
  %20 = extractvalue { ptr, i32 } %lpad.phi.i, 0
  tail call void @__clang_call_terminate(ptr %20) #14
  unreachable

_ZN12NavmeshFlagsD2Ev.exit:                       ; preds = %._crit_edge.i
  tail call void @_ZdlPv(ptr noundef nonnull %3) #15
  br label %21

21:                                               ; preds = %_ZN12NavmeshFlagsD2Ev.exit, %1
  tail call void @_ZN10SampleToolD2Ev(ptr noundef nonnull align 8 dereferenceable(8) %0) #16
  ret void
}